target datalayout = "e-m:e-p270:32:32-p271:32:32-p272:64:64-i64:64-i128:128-f80:128-n8:16:32:64-S128"
target triple = "x86_64-unknown-linux-gnu"

%"class.llvh::ilist_iterator" = type { ptr }
%"class.llvh::simple_ilist" = type { %"class.llvh::ilist_sentinel" }
%"class.llvh::ilist_sentinel" = type { %"class.llvh::ilist_node_impl" }
%"class.llvh::ilist_node_impl" = type { %"class.llvh::ilist_node_base" }
%"class.llvh::ilist_node_base" = type { ptr, ptr }
%"class.llvh::SMLoc" = type { ptr }
%"class.llvh::SMRange" = type { %"class.llvh::SMLoc", %"class.llvh::SMLoc" }
%"class.hermes::ESTree::StatementNode" = type { %"class.hermes::ESTree::Node" }
%"class.hermes::ESTree::Node" = type { %"class.llvh::ilist_node", i32, i32, %"class.llvh::SMRange", %"class.llvh::SMLoc" }
%"class.llvh::ilist_node" = type { %"class.llvh::ilist_node_impl" }
%"class.hermes::ESTree::BlockStatementNode" = type { %"class.hermes::ESTree::StatementNode", %"class.hermes::ESTree::BlockStatementDecoration.base", %"class.llvh::simple_ilist" }
%"class.hermes::ESTree::BlockStatementDecoration.base" = type <{ i32, i8, i8, i8 }>

; Function Attrs: mustprogress nounwind uwtable
define linkonce_odr hidden noundef i32 @_ZNK6hermes6ESTree4Node7getKindEv(ptr noundef nonnull align 8 dereferenceable(48) %this) #0 comdat align 2 {
entry:
  %this.addr = alloca ptr, align 8
  store ptr %this, ptr %this.addr, align 8
  %this1 = load ptr, ptr %this.addr, align 8
  %kind_ = getelementptr inbounds %"class.hermes::ESTree::Node", ptr %this1, i32 0, i32 1
  %0 = load i32, ptr %kind_, align 8
  ret i32 %0
}

; Function Attrs: mustprogress nounwind uwtable
define linkonce_odr hidden noundef zeroext i1 @_ZN6hermes6ESTree18BlockStatementNode7classofEPKNS0_4NodeE(ptr noundef %V) #0 comdat align 2 {
entry:
  %V.addr = alloca ptr, align 8
  store ptr %V, ptr %V.addr, align 8
  %0 = load ptr, ptr %V.addr, align 8
  %call = call noundef i32 @_ZNK6hermes6ESTree4Node7getKindEv(ptr noundef nonnull align 8 dereferenceable(48) %0)
  %cmp = icmp eq i32 %call, 19
  ret i1 %cmp
}

; Function Attrs: mustprogress nounwind uwtable
define linkonce_odr hidden noundef zeroext i1 @_ZN4llvh8isa_implIN6hermes6ESTree18BlockStatementNodeENS2_4NodeEvE4doitERKS4_(ptr noundef nonnull align 8 dereferenceable(48) %Val) #0 comdat align 2 {
entry:
  %Val.addr = alloca ptr, align 8
  store ptr %Val, ptr %Val.addr, align 8
  %0 = load ptr, ptr %Val.addr, align 8
  %call = call noundef zeroext i1 @_ZN6hermes6ESTree18BlockStatementNode7classofEPKNS0_4NodeE(ptr noundef %0)
  ret i1 %call
}

; Function Attrs: mustprogress nounwind uwtable
define linkonce_odr hidden noundef zeroext i1 @_ZN4llvh11isa_impl_clIN6hermes6ESTree18BlockStatementNodeEPKNS2_4NodeEE4doitES6_(ptr noundef %Val) #0 comdat align 2 {
entry:
  %Val.addr = alloca ptr, align 8
  store ptr %Val, ptr %Val.addr, align 8
  %0 = load ptr, ptr %Val.addr, align 8
  %call = call noundef zeroext i1 @_ZN4llvh8isa_implIN6hermes6ESTree18BlockStatementNodeENS2_4NodeEvE4doitERKS4_(ptr noundef nonnull align 8 dereferenceable(48) %0)
  ret i1 %call
}

; Function Attrs: mustprogress nounwind uwtable
define linkonce_odr hidden noundef nonnull align 8 dereferenceable(8) ptr @_ZN4llvh13simplify_typeIPN6hermes6ESTree4NodeEE18getSimplifiedValueERS4_(ptr noundef nonnull align 8 dereferenceable(8) %Val) #0 comdat align 2 {
entry:
  %Val.addr = alloca ptr, align 8
  store ptr %Val, ptr %Val.addr, align 8
  %0 = load ptr, ptr %Val.addr, align 8
  ret ptr %0
}

; Function Attrs: mustprogress nounwind uwtable
define linkonce_odr hidden noundef zeroext i1 @_ZN4llvh13isa_impl_wrapIN6hermes6ESTree18BlockStatementNodeEPKNS2_4NodeES6_E4doitERKS6_(ptr noundef nonnull align 8 dereferenceable(8) %Val) #0 comdat align 2 {
entry:
  %Val.addr = alloca ptr, align 8
  store ptr %Val, ptr %Val.addr, align 8
  %0 = load ptr, ptr %Val.addr, align 8
  %1 = load ptr, ptr %0, align 8
  %call = call noundef zeroext i1 @_ZN4llvh11isa_impl_clIN6hermes6ESTree18BlockStatementNodeEPKNS2_4NodeEE4doitES6_(ptr noundef %1)
  ret i1 %call
}

; Function Attrs: mustprogress nounwind uwtable
define linkonce_odr hidden noundef ptr @_ZN4llvh13simplify_typeIKPN6hermes6ESTree4NodeEE18getSimplifiedValueERS5_(ptr noundef nonnull align 8 dereferenceable(8) %Val) #0 comdat align 2 {
entry:
  %Val.addr = alloca ptr, align 8
  store ptr %Val, ptr %Val.addr, align 8
  %0 = load ptr, ptr %Val.addr, align 8
  %call = call noundef nonnull align 8 dereferenceable(8) ptr @_ZN4llvh13simplify_typeIPN6hermes6ESTree4NodeEE18getSimplifiedValueERS4_(ptr noundef nonnull align 8 dereferenceable(8) %0)
  %1 = load ptr, ptr %call, align 8
  ret ptr %1
}

; Function Attrs: mustprogress nounwind uwtable
define linkonce_odr hidden noundef ptr @_ZNK4llvh15ilist_node_baseILb0EE7getNextEv(ptr noundef nonnull align 8 dereferenceable(16) %this) #0 comdat align 2 {
entry:
  %this.addr = alloca ptr, align 8
  store ptr %this, ptr %this.addr, align 8
  %this1 = load ptr, ptr %this.addr, align 8
  %Next = getelementptr inbounds %"class.llvh::ilist_node_base", ptr %this1, i32 0, i32 1
  %0 = load ptr, ptr %Next, align 8
  ret ptr %0
}

; Function Attrs: mustprogress nounwind uwtable
define linkonce_odr hidden noundef ptr @_ZN4llvh12ilist_detail10NodeAccess11getValuePtrINS0_12node_optionsIN6hermes6ESTree4NodeELb0ELb0EvEEEENT_7pointerEPNS_15ilist_node_implIS8_EE(ptr noundef %N) #0 comdat align 2 {
entry:
  %N.addr = alloca ptr, align 8
  store ptr %N, ptr %N.addr, align 8
  %0 = load ptr, ptr %N.addr, align 8
  ret ptr %0
}

; Function Attrs: mustprogress nounwind uwtable
define linkonce_odr hidden noundef ptr @_ZN4llvh16cast_convert_valIN6hermes6ESTree18BlockStatementNodeEPNS2_4NodeES5_E4doitERKS5_(ptr noundef nonnull align 8 dereferenceable(8) %Val) #0 comdat align 2 {
entry:
  %Val.addr = alloca ptr, align 8
  %Res2 = alloca ptr, align 8
  store ptr %Val, ptr %Val.addr, align 8
  %0 = load ptr, ptr %Val.addr, align 8
  %1 = load ptr, ptr %0, align 8
  store ptr %1, ptr %Res2, align 8
  %2 = load ptr, ptr %Res2, align 8
  ret ptr %2
}

; Function Attrs: mustprogress nounwind uwtable
define linkonce_odr hidden noundef zeroext i1 @_ZN4llvh13isa_impl_wrapIN6hermes6ESTree18BlockStatementNodeEKPNS2_4NodeEPKS4_E4doitERS6_(ptr noundef nonnull align 8 dereferenceable(8) %Val) #0 comdat align 2 {
entry:
  %Val.addr = alloca ptr, align 8
  %ref.tmp = alloca ptr, align 8
  store ptr %Val, ptr %Val.addr, align 8
  %0 = load ptr, ptr %Val.addr, align 8
  %call = call noundef ptr @_ZN4llvh13simplify_typeIKPN6hermes6ESTree4NodeEE18getSimplifiedValueERS5_(ptr noundef nonnull align 8 dereferenceable(8) %0)
  store ptr %call, ptr %ref.tmp, align 8
  %call1 = call noundef zeroext i1 @_ZN4llvh13isa_impl_wrapIN6hermes6ESTree18BlockStatementNodeEPKNS2_4NodeES6_E4doitERKS6_(ptr noundef nonnull align 8 dereferenceable(8) %ref.tmp)
  ret i1 %call1
}

; Function Attrs: mustprogress nounwind uwtable
define linkonce_odr hidden noundef ptr @_ZN4llvh15ilist_node_implINS_12ilist_detail12node_optionsIN6hermes6ESTree4NodeELb0ELb0EvEEE7getNextEv(ptr noundef nonnull align 8 dereferenceable(16) %this) #0 comdat align 2 {
entry:
  %this.addr = alloca ptr, align 8
  store ptr %this, ptr %this.addr, align 8
  %this1 = load ptr, ptr %this.addr, align 8
  %call = call noundef ptr @_ZNK4llvh15ilist_node_baseILb0EE7getNextEv(ptr noundef nonnull align 8 dereferenceable(16) %this1)
  ret ptr %call
}

; Function Attrs: mustprogress nounwind uwtable
define linkonce_odr hidden noundef ptr @_ZN4llvh12ilist_detail18SpecificNodeAccessINS0_12node_optionsIN6hermes6ESTree4NodeELb0ELb0EvEEE11getValuePtrEPNS_15ilist_node_implIS6_EE(ptr noundef %N) #0 comdat align 2 {
entry:
  %N.addr = alloca ptr, align 8
  store ptr %N, ptr %N.addr, align 8
  %0 = load ptr, ptr %N.addr, align 8
  %call = call noundef ptr @_ZN4llvh12ilist_detail10NodeAccess11getValuePtrINS0_12node_optionsIN6hermes6ESTree4NodeELb0ELb0EvEEEENT_7pointerEPNS_15ilist_node_implIS8_EE(ptr noundef %0)
  ret ptr %call
}

; Function Attrs: mustprogress nounwind uwtable
define linkonce_odr hidden void @_ZN4llvh14ilist_iteratorINS_12ilist_detail12node_optionsIN6hermes6ESTree4NodeELb0ELb0EvEELb0ELb0EEC2ERNS_15ilist_node_implIS6_EE(ptr noundef nonnull align 8 dereferenceable(8) %this, ptr noundef nonnull align 8 dereferenceable(16) %N) unnamed_addr #0 comdat align 2 {
entry:
  %this.addr = alloca ptr, align 8
  %N.addr = alloca ptr, align 8
  store ptr %this, ptr %this.addr, align 8
  store ptr %N, ptr %N.addr, align 8
  %this1 = load ptr, ptr %this.addr, align 8
  %NodePtr = getelementptr inbounds %"class.llvh::ilist_iterator", ptr %this1, i32 0, i32 0
  %0 = load ptr, ptr %N.addr, align 8
  store ptr %0, ptr %NodePtr, align 8
  ret void
}

; Function Attrs: mustprogress nounwind uwtable
define linkonce_odr hidden noundef ptr @_ZN4llvh4castIN6hermes6ESTree18BlockStatementNodeENS2_4NodeEEENS_10cast_rettyIT_PT0_E8ret_typeES8_(ptr noundef %Val) #0 comdat {
entry:
  %Val.addr = alloca ptr, align 8
  store ptr %Val, ptr %Val.addr, align 8
  %call = call noundef ptr @_ZN4llvh16cast_convert_valIN6hermes6ESTree18BlockStatementNodeEPNS2_4NodeES5_E4doitERKS5_(ptr noundef nonnull align 8 dereferenceable(8) %Val.addr)
  ret ptr %call
}

; Function Attrs: mustprogress nounwind uwtable
define linkonce_odr hidden noundef zeroext i1 @_ZN4llvh3isaIN6hermes6ESTree18BlockStatementNodeEPNS2_4NodeEEEbRKT0_(ptr noundef nonnull align 8 dereferenceable(8) %Val) #0 comdat {
entry:
  %Val.addr = alloca ptr, align 8
  store ptr %Val, ptr %Val.addr, align 8
  %0 = load ptr, ptr %Val.addr, align 8
  %call = call noundef zeroext i1 @_ZN4llvh13isa_impl_wrapIN6hermes6ESTree18BlockStatementNodeEKPNS2_4NodeEPKS4_E4doitERS6_(ptr noundef nonnull align 8 dereferenceable(8) %0)
  ret i1 %call
}

; Function Attrs: mustprogress nounwind uwtable
define linkonce_odr hidden noundef nonnull align 8 dereferenceable(8) ptr @_ZN4llvh14ilist_iteratorINS_12ilist_detail12node_optionsIN6hermes6ESTree4NodeELb0ELb0EvEELb0ELb0EEppEv(ptr noundef nonnull align 8 dereferenceable(8) %this) #0 comdat align 2 {
entry:
  %this.addr = alloca ptr, align 8
  store ptr %this, ptr %this.addr, align 8
  %this1 = load ptr, ptr %this.addr, align 8
  %NodePtr = getelementptr inbounds %"class.llvh::ilist_iterator", ptr %this1, i32 0, i32 0
  %0 = load ptr, ptr %NodePtr, align 8
  %call = call noundef ptr @_ZN4llvh15ilist_node_implINS_12ilist_detail12node_optionsIN6hermes6ESTree4NodeELb0ELb0EvEEE7getNextEv(ptr noundef nonnull align 8 dereferenceable(16) %0)
  %NodePtr2 = getelementptr inbounds %"class.llvh::ilist_iterator", ptr %this1, i32 0, i32 0
  store ptr %call, ptr %NodePtr2, align 8
  ret ptr %this1
}

; Function Attrs: mustprogress nounwind uwtable
define linkonce_odr hidden noundef nonnull align 8 dereferenceable(48) ptr @_ZNK4llvh14ilist_iteratorINS_12ilist_detail12node_optionsIN6hermes6ESTree4NodeELb0ELb0EvEELb0ELb0EEdeEv(ptr noundef nonnull align 8 dereferenceable(8) %this) #0 comdat align 2 {
entry:
  %this.addr = alloca ptr, align 8
  store ptr %this, ptr %this.addr, align 8
  %this1 = load ptr, ptr %this.addr, align 8
  %NodePtr = getelementptr inbounds %"class.llvh::ilist_iterator", ptr %this1, i32 0, i32 0
  %0 = load ptr, ptr %NodePtr, align 8
  %call = call noundef ptr @_ZN4llvh12ilist_detail18SpecificNodeAccessINS0_12node_optionsIN6hermes6ESTree4NodeELb0ELb0EvEEE11getValuePtrEPNS_15ilist_node_implIS6_EE(ptr noundef %0)
  ret ptr %call
}

; Function Attrs: mustprogress nounwind uwtable
define linkonce_odr hidden noundef zeroext i1 @_ZN4llvhneERKNS_14ilist_iteratorINS_12ilist_detail12node_optionsIN6hermes6ESTree4NodeELb0ELb0EvEELb0ELb0EEES9_(ptr noundef nonnull align 8 dereferenceable(8) %LHS, ptr noundef nonnull align 8 dereferenceable(8) %RHS) #0 comdat {
entry:
  %LHS.addr = alloca ptr, align 8
  %RHS.addr = alloca ptr, align 8
  store ptr %LHS, ptr %LHS.addr, align 8
  store ptr %RHS, ptr %RHS.addr, align 8
  %0 = load ptr, ptr %LHS.addr, align 8
  %NodePtr = getelementptr inbounds %"class.llvh::ilist_iterator", ptr %0, i32 0, i32 0
  %1 = load ptr, ptr %NodePtr, align 8
  %2 = load ptr, ptr %RHS.addr, align 8
  %NodePtr1 = getelementptr inbounds %"class.llvh::ilist_iterator", ptr %2, i32 0, i32 0
  %3 = load ptr, ptr %NodePtr1, align 8
  %cmp = icmp ne ptr %1, %3
  ret i1 %cmp
}

; Function Attrs: mustprogress nounwind uwtable
define linkonce_odr hidden ptr @_ZN4llvh12simple_ilistIN6hermes6ESTree4NodeEJEE3endEv(ptr noundef nonnull align 8 dereferenceable(16) %this) #0 comdat align 2 {
entry:
  %retval = alloca %"class.llvh::ilist_iterator", align 8
  %this.addr = alloca ptr, align 8
  store ptr %this, ptr %this.addr, align 8
  %this1 = load ptr, ptr %this.addr, align 8
  %Sentinel = getelementptr inbounds %"class.llvh::simple_ilist", ptr %this1, i32 0, i32 0
  call void @_ZN4llvh14ilist_iteratorINS_12ilist_detail12node_optionsIN6hermes6ESTree4NodeELb0ELb0EvEELb0ELb0EEC2ERNS_15ilist_node_implIS6_EE(ptr noundef nonnull align 8 dereferenceable(8) %retval, ptr noundef nonnull align 8 dereferenceable(16) %Sentinel)
  %coerce.dive = getelementptr inbounds %"class.llvh::ilist_iterator", ptr %retval, i32 0, i32 0
  %0 = load ptr, ptr %coerce.dive, align 8
  ret ptr %0
}

; Function Attrs: mustprogress nounwind uwtable
define linkonce_odr hidden ptr @_ZN4llvh12simple_ilistIN6hermes6ESTree4NodeEJEE5beginEv(ptr noundef nonnull align 8 dereferenceable(16) %this) #0 comdat align 2 {
entry:
  %retval = alloca %"class.llvh::ilist_iterator", align 8
  %this.addr = alloca ptr, align 8
  %ref.tmp = alloca %"class.llvh::ilist_iterator", align 8
  store ptr %this, ptr %this.addr, align 8
  %this1 = load ptr, ptr %this.addr, align 8
  %Sentinel = getelementptr inbounds %"class.llvh::simple_ilist", ptr %this1, i32 0, i32 0
  call void @_ZN4llvh14ilist_iteratorINS_12ilist_detail12node_optionsIN6hermes6ESTree4NodeELb0ELb0EvEELb0ELb0EEC2ERNS_15ilist_node_implIS6_EE(ptr noundef nonnull align 8 dereferenceable(8) %ref.tmp, ptr noundef nonnull align 8 dereferenceable(16) %Sentinel)
  %call = call noundef nonnull align 8 dereferenceable(8) ptr @_ZN4llvh14ilist_iteratorINS_12ilist_detail12node_optionsIN6hermes6ESTree4NodeELb0ELb0EvEELb0ELb0EEppEv(ptr noundef nonnull align 8 dereferenceable(8) %ref.tmp)
  call void @llvm.memcpy.p0.p0.i64(ptr align 8 %retval, ptr align 8 %call, i64 8, i1 false)
  %coerce.dive = getelementptr inbounds %"class.llvh::ilist_iterator", ptr %retval, i32 0, i32 0
  %0 = load ptr, ptr %coerce.dive, align 8
  ret ptr %0
}

; Function Attrs: mustprogress nounwind uwtable
define linkonce_odr hidden noundef ptr @_ZN4llvh8dyn_castIN6hermes6ESTree18BlockStatementNodeENS2_4NodeEEENS_10cast_rettyIT_PT0_E8ret_typeES8_(ptr noundef %Val) #0 comdat {
entry:
  %Val.addr = alloca ptr, align 8
  store ptr %Val, ptr %Val.addr, align 8
  %call = call noundef zeroext i1 @_ZN4llvh3isaIN6hermes6ESTree18BlockStatementNodeEPNS2_4NodeEEEbRKT0_(ptr noundef nonnull align 8 dereferenceable(8) %Val.addr)
  br i1 %call, label %cond.true, label %cond.false

cond.true:                                        ; preds = %entry
  %0 = load ptr, ptr %Val.addr, align 8
  %call1 = call noundef ptr @_ZN4llvh4castIN6hermes6ESTree18BlockStatementNodeENS2_4NodeEEENS_10cast_rettyIT_PT0_E8ret_typeES8_(ptr noundef %0)
  br label %cond.end

cond.false:                                       ; preds = %entry
  br label %cond.end

cond.end:                                         ; preds = %cond.false, %cond.true
  %cond = phi ptr [ %call1, %cond.true ], [ null, %cond.false ]
  ret ptr %cond
}

; Function Attrs: mustprogress nounwind uwtable
define hidden void @_ZN6hermes5irgen11ESTreeIRGen28genScopelessBlockOrStatementEPNS_6ESTree4NodeE(ptr noundef nonnull align 8 dereferenceable(200) %this, ptr noundef %stmt) #0 align 2 {
entry:
  %this.addr = alloca ptr, align 8
  %stmt.addr = alloca ptr, align 8
  %BS = alloca ptr, align 8
  %__range3 = alloca ptr, align 8
  %__begin3 = alloca %"class.llvh::ilist_iterator", align 8
  %__end3 = alloca %"class.llvh::ilist_iterator", align 8
  %Node = alloca ptr, align 8
  store ptr %this, ptr %this.addr, align 8
  store ptr %stmt, ptr %stmt.addr, align 8
  %this1 = load ptr, ptr %this.addr, align 8
  %0 = load ptr, ptr %stmt.addr, align 8
  %call = call noundef ptr @_ZN4llvh8dyn_castIN6hermes6ESTree18BlockStatementNodeENS2_4NodeEEENS_10cast_rettyIT_PT0_E8ret_typeES8_(ptr noundef %0)
  store ptr %call, ptr %BS, align 8
  %1 = load ptr, ptr %BS, align 8
  %tobool = icmp ne ptr %1, null
  br i1 %tobool, label %if.then, label %if.end

if.then:                                          ; preds = %entry
  %2 = load ptr, ptr %BS, align 8
  %_body = getelementptr inbounds %"class.hermes::ESTree::BlockStatementNode", ptr %2, i32 0, i32 2
  store ptr %_body, ptr %__range3, align 8
  %3 = load ptr, ptr %__range3, align 8
  %call2 = call ptr @_ZN4llvh12simple_ilistIN6hermes6ESTree4NodeEJEE5beginEv(ptr noundef nonnull align 8 dereferenceable(16) %3)
  %coerce.dive = getelementptr inbounds %"class.llvh::ilist_iterator", ptr %__begin3, i32 0, i32 0
  store ptr %call2, ptr %coerce.dive, align 8
  %4 = load ptr, ptr %__range3, align 8
  %call3 = call ptr @_ZN4llvh12simple_ilistIN6hermes6ESTree4NodeEJEE3endEv(ptr noundef nonnull align 8 dereferenceable(16) %4)
  %coerce.dive4 = getelementptr inbounds %"class.llvh::ilist_iterator", ptr %__end3, i32 0, i32 0
  store ptr %call3, ptr %coerce.dive4, align 8
  br label %for.cond

for.cond:                                         ; preds = %for.inc, %if.then
  %call5 = call noundef zeroext i1 @_ZN4llvhneERKNS_14ilist_iteratorINS_12ilist_detail12node_optionsIN6hermes6ESTree4NodeELb0ELb0EvEELb0ELb0EEES9_(ptr noundef nonnull align 8 dereferenceable(8) %__begin3, ptr noundef nonnull align 8 dereferenceable(8) %__end3)
  br i1 %call5, label %for.body, label %for.end

for.body:                                         ; preds = %for.cond
  %call6 = call noundef nonnull align 8 dereferenceable(48) ptr @_ZNK4llvh14ilist_iteratorINS_12ilist_detail12node_optionsIN6hermes6ESTree4NodeELb0ELb0EvEELb0ELb0EEdeEv(ptr noundef nonnull align 8 dereferenceable(8) %__begin3)
  store ptr %call6, ptr %Node, align 8
  %5 = load ptr, ptr %Node, align 8
  call void @_ZN6hermes5irgen11ESTreeIRGen12genStatementEPNS_6ESTree4NodeENS1_10IsLoopBodyE(ptr noundef nonnull align 8 dereferenceable(200) %this1, ptr noundef %5, i32 noundef 0)
  br label %for.inc

for.inc:                                          ; preds = %for.body
  %call7 = call noundef nonnull align 8 dereferenceable(8) ptr @_ZN4llvh14ilist_iteratorINS_12ilist_detail12node_optionsIN6hermes6ESTree4NodeELb0ELb0EvEELb0ELb0EEppEv(ptr noundef nonnull align 8 dereferenceable(8) %__begin3)
  br label %for.cond

for.end:                                          ; preds = %for.cond
  br label %return

if.end:                                           ; preds = %entry
  %6 = load ptr, ptr %stmt.addr, align 8
  call void @_ZN6hermes5irgen11ESTreeIRGen12genStatementEPNS_6ESTree4NodeENS1_10IsLoopBodyE(ptr noundef nonnull align 8 dereferenceable(200) %this1, ptr noundef %6, i32 noundef 0)
  br label %return

return:                                           ; preds = %if.end, %for.end
  ret void
}

; Function Attrs: mustprogress nounwind uwtable
define hidden void @_ZN6hermes5irgen11ESTreeIRGen15genFunctionBodyEPNS_6ESTree4NodeE(ptr noundef nonnull align 8 dereferenceable(200) %this, ptr noundef %stmt) #0 align 2 {
entry:
  %this.addr = alloca ptr, align 8
  %stmt.addr = alloca ptr, align 8
  store ptr %this, ptr %this.addr, align 8
  store ptr %stmt, ptr %stmt.addr, align 8
  %this1 = load ptr, ptr %this.addr, align 8
  %0 = load ptr, ptr %stmt.addr, align 8
  call void @_ZN6hermes5irgen11ESTreeIRGen28genScopelessBlockOrStatementEPNS_6ESTree4NodeE(ptr noundef nonnull align 8 dereferenceable(200) %this1, ptr noundef %0)
  ret void
}